target datalayout = "e-m:e-p270:32:32-p271:32:32-p272:64:64-i64:64-i128:128-f80:128-n8:16:32:64-S128"
target triple = "x86_64-pc-linux-gnu"

%struct.DdNode = type { i32, i32, ptr, %union.anon, i64 }
%union.anon = type { %struct.DdChildren }
%struct.DdChildren = type { ptr, ptr }

; Function Attrs: nounwind uwtable
define ptr @cuddAddMonadicApplyRecur(ptr noundef %0, ptr noundef %1, ptr noundef %2) #0 {
  %4 = alloca ptr, align 8
  %5 = alloca ptr, align 8
  %6 = alloca ptr, align 8
  %7 = alloca ptr, align 8
  %8 = alloca ptr, align 8
  %9 = alloca ptr, align 8
  %10 = alloca ptr, align 8
  %11 = alloca ptr, align 8
  %12 = alloca ptr, align 8
  %13 = alloca i32, align 4
  %14 = alloca i32, align 4
  store ptr %0, ptr %5, align 8, !tbaa !3
  store ptr %1, ptr %6, align 8, !tbaa !8
  store ptr %2, ptr %7, align 8, !tbaa !9
  call void @llvm.lifetime.start.p0(i64 8, ptr %8) #4
  call void @llvm.lifetime.start.p0(i64 8, ptr %9) #4
  call void @llvm.lifetime.start.p0(i64 8, ptr %10) #4
  call void @llvm.lifetime.start.p0(i64 8, ptr %11) #4
  call void @llvm.lifetime.start.p0(i64 8, ptr %12) #4
  call void @llvm.lifetime.start.p0(i64 4, ptr %13) #4
  %15 = load ptr, ptr %6, align 8, !tbaa !8
  %16 = load ptr, ptr %5, align 8, !tbaa !3
  %17 = load ptr, ptr %7, align 8, !tbaa !9
  %18 = call ptr %15(ptr noundef %16, ptr noundef %17)
  store ptr %18, ptr %8, align 8, !tbaa !9
  %19 = load ptr, ptr %8, align 8, !tbaa !9
  %20 = icmp ne ptr %19, null
  br i1 %20, label %21, label %23

21:                                               ; preds = %3
  %22 = load ptr, ptr %8, align 8, !tbaa !9
  store ptr %22, ptr %4, align 8
  store i32 1, ptr %14, align 4
  br label %116

23:                                               ; preds = %3
  %24 = load ptr, ptr %5, align 8, !tbaa !3
  %25 = load ptr, ptr %6, align 8, !tbaa !8
  %26 = load ptr, ptr %7, align 8, !tbaa !9
  %27 = call ptr @cuddCacheLookup1(ptr noundef %24, ptr noundef %25, ptr noundef %26)
  store ptr %27, ptr %8, align 8, !tbaa !9
  %28 = load ptr, ptr %8, align 8, !tbaa !9
  %29 = icmp ne ptr %28, null
  br i1 %29, label %30, label %32

30:                                               ; preds = %23
  %31 = load ptr, ptr %8, align 8, !tbaa !9
  store ptr %31, ptr %4, align 8
  store i32 1, ptr %14, align 4
  br label %116

32:                                               ; preds = %23
  %33 = load ptr, ptr %7, align 8, !tbaa !9
  %34 = getelementptr inbounds nuw %struct.DdNode, ptr %33, i32 0, i32 0
  %35 = load i32, ptr %34, align 8, !tbaa !30
  store i32 %35, ptr %13, align 4, !tbaa !32
  %36 = load ptr, ptr %7, align 8, !tbaa !9
  %37 = getelementptr inbounds nuw %struct.DdNode, ptr %36, i32 0, i32 3
  %38 = getelementptr inbounds nuw %struct.DdChildren, ptr %37, i32 0, i32 0
  %39 = load ptr, ptr %38, align 8, !tbaa !33
  store ptr %39, ptr %9, align 8, !tbaa !9
  %40 = load ptr, ptr %7, align 8, !tbaa !9
  %41 = getelementptr inbounds nuw %struct.DdNode, ptr %40, i32 0, i32 3
  %42 = getelementptr inbounds nuw %struct.DdChildren, ptr %41, i32 0, i32 1
  %43 = load ptr, ptr %42, align 8, !tbaa !33
  store ptr %43, ptr %10, align 8, !tbaa !9
  %44 = load ptr, ptr %5, align 8, !tbaa !3
  %45 = load ptr, ptr %6, align 8, !tbaa !8
  %46 = load ptr, ptr %9, align 8, !tbaa !9
  %47 = call ptr @cuddAddMonadicApplyRecur(ptr noundef %44, ptr noundef %45, ptr noundef %46)
  store ptr %47, ptr %11, align 8, !tbaa !9
  %48 = load ptr, ptr %11, align 8, !tbaa !9
  %49 = icmp eq ptr %48, null
  br i1 %49, label %50, label %51

50:                                               ; preds = %32
  store ptr null, ptr %4, align 8
  store i32 1, ptr %14, align 4
  br label %116

51:                                               ; preds = %32
  %52 = load ptr, ptr %11, align 8, !tbaa !9
  %53 = ptrtoint ptr %52 to i64
  %54 = and i64 %53, -2
  %55 = inttoptr i64 %54 to ptr
  %56 = getelementptr inbounds nuw %struct.DdNode, ptr %55, i32 0, i32 1
  %57 = load i32, ptr %56, align 4, !tbaa !34
  %58 = add i32 %57, 1
  store i32 %58, ptr %56, align 4, !tbaa !34
  %59 = load ptr, ptr %5, align 8, !tbaa !3
  %60 = load ptr, ptr %6, align 8, !tbaa !8
  %61 = load ptr, ptr %10, align 8, !tbaa !9
  %62 = call ptr @cuddAddMonadicApplyRecur(ptr noundef %59, ptr noundef %60, ptr noundef %61)
  store ptr %62, ptr %12, align 8, !tbaa !9
  %63 = load ptr, ptr %12, align 8, !tbaa !9
  %64 = icmp eq ptr %63, null
  br i1 %64, label %65, label %68

65:                                               ; preds = %51
  %66 = load ptr, ptr %5, align 8, !tbaa !3
  %67 = load ptr, ptr %11, align 8, !tbaa !9
  call void @Cudd_RecursiveDeref(ptr noundef %66, ptr noundef %67)
  store ptr null, ptr %4, align 8
  store i32 1, ptr %14, align 4
  br label %116

68:                                               ; preds = %51
  %69 = load ptr, ptr %12, align 8, !tbaa !9
  %70 = ptrtoint ptr %69 to i64
  %71 = and i64 %70, -2
  %72 = inttoptr i64 %71 to ptr
  %73 = getelementptr inbounds nuw %struct.DdNode, ptr %72, i32 0, i32 1
  %74 = load i32, ptr %73, align 4, !tbaa !34
  %75 = add i32 %74, 1
  store i32 %75, ptr %73, align 4, !tbaa !34
  %76 = load ptr, ptr %11, align 8, !tbaa !9
  %77 = load ptr, ptr %12, align 8, !tbaa !9
  %78 = icmp eq ptr %76, %77
  br i1 %78, label %79, label %81

79:                                               ; preds = %68
  %80 = load ptr, ptr %11, align 8, !tbaa !9
  br label %87

81:                                               ; preds = %68
  %82 = load ptr, ptr %5, align 8, !tbaa !3
  %83 = load i32, ptr %13, align 4, !tbaa !32
  %84 = load ptr, ptr %11, align 8, !tbaa !9
  %85 = load ptr, ptr %12, align 8, !tbaa !9
  %86 = call ptr @cuddUniqueInter(ptr noundef %82, i32 noundef %83, ptr noundef %84, ptr noundef %85)
  br label %87

87:                                               ; preds = %81, %79
  %88 = phi ptr [ %80, %79 ], [ %86, %81 ]
  store ptr %88, ptr %8, align 8, !tbaa !9
  %89 = load ptr, ptr %8, align 8, !tbaa !9
  %90 = icmp eq ptr %89, null
  br i1 %90, label %91, label %96

91:                                               ; preds = %87
  %92 = load ptr, ptr %5, align 8, !tbaa !3
  %93 = load ptr, ptr %11, align 8, !tbaa !9
  call void @Cudd_RecursiveDeref(ptr noundef %92, ptr noundef %93)
  %94 = load ptr, ptr %5, align 8, !tbaa !3
  %95 = load ptr, ptr %12, align 8, !tbaa !9
  call void @Cudd_RecursiveDeref(ptr noundef %94, ptr noundef %95)
  store ptr null, ptr %4, align 8
  store i32 1, ptr %14, align 4
  br label %116

96:                                               ; preds = %87
  %97 = load ptr, ptr %11, align 8, !tbaa !9
  %98 = ptrtoint ptr %97 to i64
  %99 = and i64 %98, -2
  %100 = inttoptr i64 %99 to ptr
  %101 = getelementptr inbounds nuw %struct.DdNode, ptr %100, i32 0, i32 1
  %102 = load i32, ptr %101, align 4, !tbaa !34
  %103 = add i32 %102, -1
  store i32 %103, ptr %101, align 4, !tbaa !34
  %104 = load ptr, ptr %12, align 8, !tbaa !9
  %105 = ptrtoint ptr %104 to i64
  %106 = and i64 %105, -2
  %107 = inttoptr i64 %106 to ptr
  %108 = getelementptr inbounds nuw %struct.DdNode, ptr %107, i32 0, i32 1
  %109 = load i32, ptr %108, align 4, !tbaa !34
  %110 = add i32 %109, -1
  store i32 %110, ptr %108, align 4, !tbaa !34
  %111 = load ptr, ptr %5, align 8, !tbaa !3
  %112 = load ptr, ptr %6, align 8, !tbaa !8
  %113 = load ptr, ptr %7, align 8, !tbaa !9
  %114 = load ptr, ptr %8, align 8, !tbaa !9
  call void @cuddCacheInsert1(ptr noundef %111, ptr noundef %112, ptr noundef %113, ptr noundef %114)
  %115 = load ptr, ptr %8, align 8, !tbaa !9
  store ptr %115, ptr %4, align 8
  store i32 1, ptr %14, align 4
  br label %116

116:                                              ; preds = %96, %91, %65, %50, %30, %21
  call void @llvm.lifetime.end.p0(i64 4, ptr %13) #4
  call void @llvm.lifetime.end.p0(i64 8, ptr %12) #4
  call void @llvm.lifetime.end.p0(i64 8, ptr %11) #4
  call void @llvm.lifetime.end.p0(i64 8, ptr %10) #4
  call void @llvm.lifetime.end.p0(i64 8, ptr %9) #4
  call void @llvm.lifetime.end.p0(i64 8, ptr %8) #4
  %117 = load ptr, ptr %4, align 8
  ret ptr %117
}