; Function Attrs: nounwind uwtable
define ptr @cuddAddMonadicApplyRecur(ptr noundef %0, ptr noundef %1, ptr noundef %2) local_unnamed_addr #0 {
  %4 = tail call ptr %1(ptr noundef %0, ptr noundef %2) #5
  %.not = icmp eq ptr %4, null
  br i1 %.not, label %5, label %42

5:                                                ; preds = %3
  %6 = tail call ptr @cuddCacheLookup1(ptr noundef %0, ptr noundef %1, ptr noundef %2) #5
  %.not49 = icmp eq ptr %6, null
  br i1 %.not49, label %7, label %42

7:                                                ; preds = %5
  %8 = load i32, ptr %2, align 8, !tbaa !27
  %9 = getelementptr inbounds nuw i8, ptr %2, i64 16
  %10 = load ptr, ptr %9, align 8, !tbaa !30
  %11 = getelementptr inbounds nuw i8, ptr %2, i64 24
  %12 = load ptr, ptr %11, align 8, !tbaa !30
  %13 = tail call ptr @cuddAddMonadicApplyRecur(ptr noundef %0, ptr noundef %1, ptr noundef %10)
  %14 = icmp eq ptr %13, null
  br i1 %14, label %42, label %15

15:                                               ; preds = %7
  %16 = ptrtoint ptr %13 to i64
  %17 = and i64 %16, -2
  %18 = inttoptr i64 %17 to ptr
  %19 = getelementptr inbounds nuw i8, ptr %18, i64 4
  %20 = load i32, ptr %19, align 4, !tbaa !31
  %21 = add i32 %20, 1
  store i32 %21, ptr %19, align 4, !tbaa !31
  %22 = tail call ptr @cuddAddMonadicApplyRecur(ptr noundef %0, ptr noundef %1, ptr noundef %12)
  %23 = icmp eq ptr %22, null
  br i1 %23, label %24, label %25

24:                                               ; preds = %15
  tail call void @Cudd_RecursiveDeref(ptr noundef %0, ptr noundef nonnull %13) #5
  br label %42

25:                                               ; preds = %15
  %26 = ptrtoint ptr %22 to i64
  %27 = and i64 %26, -2
  %28 = inttoptr i64 %27 to ptr
  %29 = getelementptr inbounds nuw i8, ptr %28, i64 4
  %30 = load i32, ptr %29, align 4, !tbaa !31
  %31 = add i32 %30, 1
  store i32 %31, ptr %29, align 4, !tbaa !31
  %32 = icmp eq ptr %13, %22
  br i1 %32, label %.thread, label %33

33:                                               ; preds = %25
  %34 = tail call ptr @cuddUniqueInter(ptr noundef %0, i32 noundef %8, ptr noundef nonnull %13, ptr noundef nonnull %22) #5
  %35 = icmp eq ptr %34, null
  br i1 %35, label %36, label %.thread

36:                                               ; preds = %33
  tail call void @Cudd_RecursiveDeref(ptr noundef %0, ptr noundef nonnull %13) #5
  tail call void @Cudd_RecursiveDeref(ptr noundef %0, ptr noundef nonnull %22) #5
  br label %42

.thread:                                          ; preds = %25, %33
  %37 = phi ptr [ %34, %33 ], [ %13, %25 ]
  %38 = load i32, ptr %19, align 4, !tbaa !31
  %39 = add i32 %38, -1
  store i32 %39, ptr %19, align 4, !tbaa !31
  %40 = load i32, ptr %29, align 4, !tbaa !31
  %41 = add i32 %40, -1
  store i32 %41, ptr %29, align 4, !tbaa !31
  tail call void @cuddCacheInsert1(ptr noundef %0, ptr noundef %1, ptr noundef nonnull %2, ptr noundef nonnull %37) #5
  br label %42

42:                                               ; preds = %7, %5, %3, %.thread, %36, %24
  %.0 = phi ptr [ null, %24 ], [ null, %36 ], [ %37, %.thread ], [ %4, %3 ], [ %6, %5 ], [ null, %7 ]
  ret ptr %.0
}